target datalayout = "e-m:e-p270:32:32-p271:32:32-p272:64:64-i64:64-i128:128-f80:128-n8:16:32:64-S128"
target triple = "x86_64-pc-linux-gnu"

%struct.Vec_Int_t_ = type { i32, i32, ptr }

; Function Attrs: inlinehint nounwind uwtable
define internal i32 @Vec_IntEntry(ptr noundef %0, i32 noundef %1) #1 {
  %3 = alloca ptr, align 8
  %4 = alloca i32, align 4
  store ptr %0, ptr %3, align 8, !tbaa !10
  store i32 %1, ptr %4, align 4, !tbaa !12
  %5 = load ptr, ptr %3, align 8, !tbaa !10
  %6 = getelementptr inbounds nuw %struct.Vec_Int_t_, ptr %5, i32 0, i32 2
  %7 = load ptr, ptr %6, align 8, !tbaa !44
  %8 = load i32, ptr %4, align 4, !tbaa !12
  %9 = sext i32 %8 to i64
  %10 = getelementptr inbounds i32, ptr %7, i64 %9
  %11 = load i32, ptr %10, align 4, !tbaa !12
  ret i32 %11
}

; Function Attrs: inlinehint nounwind uwtable
define internal i32 @Vec_IntSize(ptr noundef %0) #1 {
  %2 = alloca ptr, align 8
  store ptr %0, ptr %2, align 8, !tbaa !10
  %3 = load ptr, ptr %2, align 8, !tbaa !10
  %4 = getelementptr inbounds nuw %struct.Vec_Int_t_, ptr %3, i32 0, i32 1
  %5 = load i32, ptr %4, align 4, !tbaa !42
  ret i32 %5
}

; Function Attrs: nounwind uwtable
define i32 @Gia_ManMulFindNextEntryCount(ptr noundef %0, i32 noundef %1) #0 {
  %3 = alloca i32, align 4
  %4 = alloca ptr, align 8
  %5 = alloca i32, align 4
  %6 = alloca i32, align 4
  %7 = alloca i32, align 4
  %8 = alloca i32, align 4
  %9 = alloca i32, align 4
  store ptr %0, ptr %4, align 8, !tbaa !10
  store i32 %1, ptr %5, align 4, !tbaa !12
  call void @llvm.lifetime.start.p0(i64 4, ptr %6) #10
  call void @llvm.lifetime.start.p0(i64 4, ptr %7) #10
  call void @llvm.lifetime.start.p0(i64 4, ptr %8) #10
  store i32 0, ptr %8, align 4, !tbaa !12
  br label %10

10:                                               ; preds = %34, %2
  %11 = load i32, ptr %8, align 4, !tbaa !12
  %12 = add nsw i32 %11, 1
  %13 = load ptr, ptr %4, align 8, !tbaa !10
  %14 = call i32 @Vec_IntSize(ptr noundef %13)
  %15 = icmp slt i32 %12, %14
  br i1 %15, label %16, label %25

16:                                               ; preds = %10
  %17 = load ptr, ptr %4, align 8, !tbaa !10
  %18 = load i32, ptr %8, align 4, !tbaa !12
  %19 = call i32 @Vec_IntEntry(ptr noundef %17, i32 noundef %18)
  store i32 %19, ptr %6, align 4, !tbaa !12
  br i1 true, label %20, label %25

20:                                               ; preds = %16
  %21 = load ptr, ptr %4, align 8, !tbaa !10
  %22 = load i32, ptr %8, align 4, !tbaa !12
  %23 = add nsw i32 %22, 1
  %24 = call i32 @Vec_IntEntry(ptr noundef %21, i32 noundef %23)
  store i32 %24, ptr %7, align 4, !tbaa !12
  br label %25

25:                                               ; preds = %20, %16, %10
  %26 = phi i1 [ false, %16 ], [ false, %10 ], [ true, %20 ]
  br i1 %26, label %27, label %37

27:                                               ; preds = %25
  %28 = load i32, ptr %6, align 4, !tbaa !12
  %29 = load i32, ptr %5, align 4, !tbaa !12
  %30 = icmp eq i32 %28, %29
  br i1 %30, label %31, label %33

31:                                               ; preds = %27
  %32 = load i32, ptr %7, align 4, !tbaa !12
  store i32 %32, ptr %3, align 4
  store i32 1, ptr %9, align 4
  br label %38

33:                                               ; preds = %27
  br label %34

34:                                               ; preds = %33
  %35 = load i32, ptr %8, align 4, !tbaa !12
  %36 = add nsw i32 %35, 2
  store i32 %36, ptr %8, align 4, !tbaa !12
  br label %10, !llvm.loop !75

37:                                               ; preds = %25
  store i32 -1, ptr %3, align 4
  store i32 1, ptr %9, align 4
  br label %38

38:                                               ; preds = %37, %31
  call void @llvm.lifetime.end.p0(i64 4, ptr %8) #10
  call void @llvm.lifetime.end.p0(i64 4, ptr %7) #10
  call void @llvm.lifetime.end.p0(i64 4, ptr %6) #10
  %39 = load i32, ptr %3, align 4
  ret i32 %39
}