; Function Attrs: nofree norecurse nosync nounwind memory(read, inaccessiblemem: none) uwtable
define i32 @Gia_ManMulFindNextEntryCount(ptr noundef readonly captures(none) %0, i32 noundef %1) local_unnamed_addr #4 {
  %3 = getelementptr i8, ptr %0, i64 4
  %.val = load i32, ptr %3, align 4, !tbaa !33
  %4 = icmp sgt i32 %.val, 1
  br i1 %4, label %.lr.ph, label %.critedge

.lr.ph:                                           ; preds = %2
  %5 = getelementptr i8, ptr %0, i64 8
  %.val13 = load ptr, ptr %5, align 8, !tbaa !35
  br label %10

6:                                                ; preds = %10
  %indvars.iv.next = add nuw nsw i64 %indvars.iv, 2
  %7 = trunc i64 %indvars.iv.next to i32
  %8 = or disjoint i32 %7, 1
  %9 = icmp slt i32 %8, %.val
  br i1 %9, label %10, label %.critedge, !llvm.loop !74

10:                                               ; preds = %.lr.ph, %6
  %indvars.iv = phi i64 [ 0, %.lr.ph ], [ %indvars.iv.next, %6 ]
  %11 = getelementptr inbounds nuw i32, ptr %.val13, i64 %indvars.iv
  %12 = load i32, ptr %11, align 4, !tbaa !29
  %13 = icmp eq i32 %12, %1
  br i1 %13, label %.critedge.split.loop.exit14, label %6

.critedge.split.loop.exit14:                      ; preds = %10
  %14 = and i64 %indvars.iv, 4294967294
  %15 = or disjoint i64 %14, 1
  %16 = getelementptr inbounds nuw i32, ptr %.val13, i64 %15
  %17 = load i32, ptr %16, align 4, !tbaa !29
  br label %.critedge

.critedge:                                        ; preds = %6, %2, %.critedge.split.loop.exit14
  %.010 = phi i32 [ %17, %.critedge.split.loop.exit14 ], [ -1, %2 ], [ -1, %6 ]
  ret i32 %.010
}